target datalayout = "e-m:e-p270:32:32-p271:32:32-p272:64:64-i64:64-i128:128-f80:128-n8:16:32:64-S128"
target triple = "x86_64-unknown-linux-gnu"

%struct.PtyChardev = type { %struct.Chardev, ptr, i32, i32, ptr }
%struct.Chardev = type { %struct.Object, %struct.QemuMutex, ptr, ptr, ptr, i32, i32, i8, ptr, ptr, [1 x i64] }
%struct.Object = type { ptr, ptr, ptr, i32, ptr }
%struct.QemuMutex = type { %union.pthread_mutex_t, i8 }
%union.pthread_mutex_t = type { %struct.__pthread_mutex_s }
%struct.__pthread_mutex_s = type { i32, i32, i32, i32, i32, i16, i16, %struct.__pthread_internal_list }
%struct.__pthread_internal_list = type { ptr, ptr }

@.str = private unnamed_addr constant [12 x i8] c"chardev-pty\00", align 1
@.str.3 = private unnamed_addr constant [27 x i8] c"../qemu/chardev/char-pty.c\00", align 1
@__func__.PTY_CHARDEV = private unnamed_addr constant [12 x i8] c"PTY_CHARDEV\00", align 1
@.str.4 = private unnamed_addr constant [13 x i8] c"pty-timer-%s\00", align 1

; Function Attrs: nounwind sspstrong uwtable
define internal void @pty_chr_timer_cancel(ptr noundef %s) #0 {
entry:
  %s.addr = alloca ptr, align 8
  store ptr %s, ptr %s.addr, align 8
  %0 = load ptr, ptr %s.addr, align 8
  %timer_src = getelementptr inbounds %struct.PtyChardev, ptr %0, i32 0, i32 4
  %1 = load ptr, ptr %timer_src, align 8
  %tobool = icmp ne ptr %1, null
  br i1 %tobool, label %if.then, label %if.end

if.then:                                          ; preds = %entry
  %2 = load ptr, ptr %s.addr, align 8
  %timer_src1 = getelementptr inbounds %struct.PtyChardev, ptr %2, i32 0, i32 4
  %3 = load ptr, ptr %timer_src1, align 8
  call void @g_source_destroy(ptr noundef %3)
  %4 = load ptr, ptr %s.addr, align 8
  %timer_src2 = getelementptr inbounds %struct.PtyChardev, ptr %4, i32 0, i32 4
  %5 = load ptr, ptr %timer_src2, align 8
  call void @g_source_unref(ptr noundef %5)
  %6 = load ptr, ptr %s.addr, align 8
  %timer_src3 = getelementptr inbounds %struct.PtyChardev, ptr %6, i32 0, i32 4
  store ptr null, ptr %timer_src3, align 8
  br label %if.end

if.end:                                           ; preds = %if.then, %entry
  ret void
}

; Function Attrs: nounwind sspstrong uwtable
define internal void @pty_chr_rearm_timer(ptr noundef %chr, i32 noundef %ms) #0 {
entry:
  %chr.addr = alloca ptr, align 8
  %ms.addr = alloca i32, align 4
  %s = alloca ptr, align 8
  %name = alloca ptr, align 8
  store ptr %chr, ptr %chr.addr, align 8
  store i32 %ms, ptr %ms.addr, align 4
  %0 = load ptr, ptr %chr.addr, align 8
  %call = call ptr @PTY_CHARDEV(ptr noundef %0)
  store ptr %call, ptr %s, align 8
  %1 = load ptr, ptr %s, align 8
  call void @pty_chr_timer_cancel(ptr noundef %1)
  %2 = load ptr, ptr %chr.addr, align 8
  %label = getelementptr inbounds %struct.Chardev, ptr %2, i32 0, i32 3
  %3 = load ptr, ptr %label, align 8
  %call1 = call noalias ptr (ptr, ...) @g_strdup_printf(ptr noundef @.str.4, ptr noundef %3)
  store ptr %call1, ptr %name, align 8
  %4 = load ptr, ptr %chr.addr, align 8
  %5 = load i32, ptr %ms.addr, align 4
  %6 = load ptr, ptr %chr.addr, align 8
  %call2 = call ptr @qemu_chr_timeout_add_ms(ptr noundef %4, i32 noundef %5, ptr noundef @pty_chr_timer, ptr noundef %6)
  %7 = load ptr, ptr %s, align 8
  %timer_src = getelementptr inbounds %struct.PtyChardev, ptr %7, i32 0, i32 4
  store ptr %call2, ptr %timer_src, align 8
  %8 = load ptr, ptr %s, align 8
  %timer_src3 = getelementptr inbounds %struct.PtyChardev, ptr %8, i32 0, i32 4
  %9 = load ptr, ptr %timer_src3, align 8
  %10 = load ptr, ptr %name, align 8
  call void @g_source_set_name(ptr noundef %9, ptr noundef %10)
  %11 = load ptr, ptr %name, align 8
  call void @g_free(ptr noundef %11)
  ret void
}

; Function Attrs: nounwind sspstrong uwtable
define internal ptr @PTY_CHARDEV(ptr noundef %obj) #0 {
entry:
  %obj.addr = alloca ptr, align 8
  store ptr %obj, ptr %obj.addr, align 8
  %0 = load ptr, ptr %obj.addr, align 8
  %call = call ptr @object_dynamic_cast_assert(ptr noundef %0, ptr noundef @.str, ptr noundef @.str.3, i32 noundef 48, ptr noundef @__func__.PTY_CHARDEV)
  ret ptr %call
}

; Function Attrs: nounwind sspstrong uwtable
define internal void @pty_chr_state(ptr noundef %chr, i32 noundef %connected) #0 {
entry:
  %chr.addr = alloca ptr, align 8
  %connected.addr = alloca i32, align 4
  %s = alloca ptr, align 8
  store ptr %chr, ptr %chr.addr, align 8
  store i32 %connected, ptr %connected.addr, align 4
  %0 = load ptr, ptr %chr.addr, align 8
  %call = call ptr @PTY_CHARDEV(ptr noundef %0)
  store ptr %call, ptr %s, align 8
  %1 = load i32, ptr %connected.addr, align 4
  %tobool = icmp ne i32 %1, 0
  br i1 %tobool, label %if.else, label %if.then

if.then:                                          ; preds = %entry
  %2 = load ptr, ptr %chr.addr, align 8
  call void @remove_fd_in_watch(ptr noundef %2)
  %3 = load ptr, ptr %s, align 8
  %connected1 = getelementptr inbounds %struct.PtyChardev, ptr %3, i32 0, i32 3
  store i32 0, ptr %connected1, align 4
  %4 = load ptr, ptr %chr.addr, align 8
  call void @pty_chr_rearm_timer(ptr noundef %4, i32 noundef 1000)
  br label %if.end11

if.else:                                          ; preds = %entry
  %5 = load ptr, ptr %s, align 8
  call void @pty_chr_timer_cancel(ptr noundef %5)
  %6 = load ptr, ptr %s, align 8
  %connected2 = getelementptr inbounds %struct.PtyChardev, ptr %6, i32 0, i32 3
  %7 = load i32, ptr %connected2, align 4
  %tobool3 = icmp ne i32 %7, 0
  br i1 %tobool3, label %if.end, label %if.then4

if.then4:                                         ; preds = %if.else
  %8 = load ptr, ptr %s, align 8
  %connected5 = getelementptr inbounds %struct.PtyChardev, ptr %8, i32 0, i32 3
  store i32 1, ptr %connected5, align 4
  %9 = load ptr, ptr %chr.addr, align 8
  call void @qemu_chr_be_event(ptr noundef %9, i32 noundef 1)
  br label %if.end

if.end:                                           ; preds = %if.then4, %if.else
  %10 = load ptr, ptr %chr.addr, align 8
  %gsource = getelementptr inbounds %struct.Chardev, ptr %10, i32 0, i32 8
  %11 = load ptr, ptr %gsource, align 8
  %tobool6 = icmp ne ptr %11, null
  br i1 %tobool6, label %if.end10, label %if.then7

if.then7:                                         ; preds = %if.end
  %12 = load ptr, ptr %chr.addr, align 8
  %13 = load ptr, ptr %s, align 8
  %ioc = getelementptr inbounds %struct.PtyChardev, ptr %13, i32 0, i32 1
  %14 = load ptr, ptr %ioc, align 8
  %15 = load ptr, ptr %chr.addr, align 8
  %16 = load ptr, ptr %chr.addr, align 8
  %gcontext = getelementptr inbounds %struct.Chardev, ptr %16, i32 0, i32 9
  %17 = load ptr, ptr %gcontext, align 8
  %call8 = call ptr @io_add_watch_poll(ptr noundef %12, ptr noundef %14, ptr noundef @pty_chr_read_poll, ptr noundef @pty_chr_read, ptr noundef %15, ptr noundef %17)
  %18 = load ptr, ptr %chr.addr, align 8
  %gsource9 = getelementptr inbounds %struct.Chardev, ptr %18, i32 0, i32 8
  store ptr %call8, ptr %gsource9, align 8
  br label %if.end10

if.end10:                                         ; preds = %if.then7, %if.end
  br label %if.end11

if.end11:                                         ; preds = %if.end10, %if.then
  ret void
}