; Function Attrs: nounwind sspstrong uwtable
define internal fastcc void @pty_chr_state(ptr noundef %chr, i32 noundef range(i32 0, 2) %connected) unnamed_addr #0 {
entry:
  %call.i = tail call ptr @object_dynamic_cast_assert(ptr noundef %chr, ptr noundef nonnull @.str, ptr noundef nonnull @.str.3, i32 noundef 48, ptr noundef nonnull @__func__.PTY_CHARDEV) #9
  %tobool.not = icmp eq i32 %connected, 0
  br i1 %tobool.not, label %if.then, label %if.else

if.then:                                          ; preds = %entry
  tail call void @remove_fd_in_watch(ptr noundef %chr) #9
  %connected1 = getelementptr inbounds nuw i8, ptr %call.i, i64 164
  store i32 0, ptr %connected1, align 4
  %call.i.i = tail call ptr @object_dynamic_cast_assert(ptr noundef %chr, ptr noundef nonnull @.str, ptr noundef nonnull @.str.3, i32 noundef 48, ptr noundef nonnull @__func__.PTY_CHARDEV) #9
  %timer_src.i.i = getelementptr inbounds nuw i8, ptr %call.i.i, i64 168
  %0 = load ptr, ptr %timer_src.i.i, align 8
  %tobool.not.i.i = icmp eq ptr %0, null
  br i1 %tobool.not.i.i, label %pty_chr_rearm_timer.exit, label %if.then.i.i

if.then.i.i:                                      ; preds = %if.then
  tail call void @g_source_destroy(ptr noundef nonnull %0) #9
  %1 = load ptr, ptr %timer_src.i.i, align 8
  tail call void @g_source_unref(ptr noundef %1) #9
  store ptr null, ptr %timer_src.i.i, align 8
  br label %pty_chr_rearm_timer.exit

pty_chr_rearm_timer.exit:                         ; preds = %if.then, %if.then.i.i
  %label.i = getelementptr inbounds nuw i8, ptr %chr, i64 96
  %2 = load ptr, ptr %label.i, align 8
  %call1.i = tail call noalias ptr (ptr, ...) @g_strdup_printf(ptr noundef nonnull @.str.4, ptr noundef %2) #9
  %call2.i = tail call ptr @qemu_chr_timeout_add_ms(ptr noundef %chr, i32 noundef 1000, ptr noundef nonnull @pty_chr_timer, ptr noundef %chr) #9
  store ptr %call2.i, ptr %timer_src.i.i, align 8
  tail call void @g_source_set_name(ptr noundef %call2.i, ptr noundef %call1.i) #9
  tail call void @g_free(ptr noundef %call1.i) #9
  br label %if.end11

if.else:                                          ; preds = %entry
  %timer_src.i = getelementptr inbounds nuw i8, ptr %call.i, i64 168
  %3 = load ptr, ptr %timer_src.i, align 8
  %tobool.not.i = icmp eq ptr %3, null
  br i1 %tobool.not.i, label %pty_chr_timer_cancel.exit, label %if.then.i

if.then.i:                                        ; preds = %if.else
  tail call void @g_source_destroy(ptr noundef nonnull %3) #9
  %4 = load ptr, ptr %timer_src.i, align 8
  tail call void @g_source_unref(ptr noundef %4) #9
  store ptr null, ptr %timer_src.i, align 8
  br label %pty_chr_timer_cancel.exit

pty_chr_timer_cancel.exit:                        ; preds = %if.else, %if.then.i
  %connected2 = getelementptr inbounds nuw i8, ptr %call.i, i64 164
  %5 = load i32, ptr %connected2, align 4
  %tobool3.not = icmp eq i32 %5, 0
  br i1 %tobool3.not, label %if.then4, label %if.end

if.then4:                                         ; preds = %pty_chr_timer_cancel.exit
  store i32 1, ptr %connected2, align 4
  tail call void @qemu_chr_be_event(ptr noundef %chr, i32 noundef 1) #9
  br label %if.end

if.end:                                           ; preds = %if.then4, %pty_chr_timer_cancel.exit
  %gsource = getelementptr inbounds nuw i8, ptr %chr, i64 128
  %6 = load ptr, ptr %gsource, align 8
  %tobool6.not = icmp eq ptr %6, null
  br i1 %tobool6.not, label %if.then7, label %if.end11

if.then7:                                         ; preds = %if.end
  %ioc = getelementptr inbounds nuw i8, ptr %call.i, i64 152
  %7 = load ptr, ptr %ioc, align 8
  %gcontext = getelementptr inbounds nuw i8, ptr %chr, i64 136
  %8 = load ptr, ptr %gcontext, align 8
  %call8 = tail call ptr @io_add_watch_poll(ptr noundef nonnull %chr, ptr noundef %7, ptr noundef nonnull @pty_chr_read_poll, ptr noundef nonnull @pty_chr_read, ptr noundef nonnull %chr, ptr noundef %8) #9
  store ptr %call8, ptr %gsource, align 8
  br label %if.end11

if.end11:                                         ; preds = %if.end, %if.then7, %pty_chr_rearm_timer.exit
  ret void
}